(dp1
S'failed'
p2
(lp3
sS'source_names'
p4
(lp5
S'.'
asS'ids'
p6
(dp7
I1
(S'/root/.pylib/sysutil/test/test_redirect.py'
S'sysutil.test.test_redirect'
p8
S'TestPrintRedirect.test_mute_print'
tp9
sI2
(S'/root/.pylib/sysutil/test/test_redirect.py'
g8
S'TestPrintRedirect.test_mute_stderr_print'
tp10
sI3
(S'/root/.pylib/sysutil/test/test_redirect.py'
g8
S'TestPrintRedirect.test_mute_stdout_print'
tp11
sI4
(S'/root/.pylib/sysutil/test/test_redirect.py'
g8
S'TestPrintRedirect.test_redirect_print'
tp12
sI5
(S'/root/.pylib/sysutil/test/test_redirect.py'
g8
S'TestPrintRedirect.test_with_mute_print'
tp13
sI6
(S'/root/.pylib/sysutil/test/test_redirect.py'
g8
S'TestPrintRedirect.test_with_nostderr_print'
tp14
sI7
(S'/root/.pylib/sysutil/test/test_redirect.py'
g8
S'TestPrintRedirect.test_with_nostdout_print'
tp15
sI8
(S'/root/.pylib/sysutil/test/test_redirect.py'
g8
S'TestRedirect.test_mute_redirecting'
tp16
sI9
(S'/root/.pylib/sysutil/test/test_redirect.py'
g8
S'TestRedirect.test_mute_stderr_redirecting'
tp17
sI10
(S'/root/.pylib/sysutil/test/test_redirect.py'
g8
S'TestRedirect.test_mute_stdout_redirecting'
tp18
sI11
(S'/root/.pylib/sysutil/test/test_redirect.py'
g8
S'TestRedirect.test_redirect_redirecting'
tp19
sI12
(S'/root/.pylib/sysutil/test/test_redirect.py'
g8
S'TestRedirect.test_with_mute_redirecting'
tp20
sI13
(S'/root/.pylib/sysutil/test/test_redirect.py'
g8
S'TestRedirect.test_with_nostderr_redirecting'
tp21
sI14
(S'/root/.pylib/sysutil/test/test_redirect.py'
g8
S'TestRedirect.test_with_nostdout_redirecting'
tp22
sI15
(S'/root/.pylib/sysutil/redirect.py'
S'sysutil.redirect'
p23
S'mute'
p24
tp25
sI16
(S'/root/.pylib/sysutil/redirect.py'
g23
S'mute_stderr'
p26
tp27
sI17
(S'/root/.pylib/sysutil/redirect.py'
g23
S'mute_stdout'
p28
tp29
sI18
(S'/root/.pylib/sysutil/redirect.py'
g23
S'redirect'
p30
tp31
sI19
(S'/root/.pylib/sysutil/redirect.py'
g23
S'with_mute'
p32
tp33
sI20
(S'/root/.pylib/sysutil/redirect.py'
g23
S'with_nostderr'
p34
tp35
sI21
(S'/root/.pylib/sysutil/redirect.py'
g23
S'with_nostdout'
p36
tp37
ss.